(lp0
(lp1
S'y'
p2
aS'n'
p3
aS'u'
p4
aa(lp5
g2
ag3
ag4
aa(lp6
g2
ag3
ag4
aa(lp7
g2
ag3
ag4
aa(lp8
g2
ag3
ag4
aa(lp9
g2
ag3
ag4
aa(lp10
g2
ag3
ag4
aa(lp11
g2
ag3
ag4
aa(lp12
g2
ag3
ag4
aa(lp13
g2
ag3
ag4
aa(lp14
g2
ag3
ag4
aa(lp15
g2
ag3
ag4
aa(lp16
g2
ag3
ag4
aa(lp17
g2
ag3
ag4
aa(lp18
g2
ag3
ag4
aa(lp19
g2
ag3
ag4
aa(lp20
S'democrat'
p21
aS'republican'
p22
aa.