(dp0
I0
S'handicapped'
p1
sI1
S'water'
p2
sI2
S'adoption'
p3
sI3
S'physician'
p4
sI4
S'el'
p5
sI5
S'religious'
p6
sI6
S'anti'
p7
sI7
S'aid'
p8
sI8
S'mx'
p9
sI9
S'immigration'
p10
sI10
S'synfuels'
p11
sI11
S'education'
p12
sI12
S'superfund'
p13
sI13
S'crime'
p14
sI14
S'duty'
p15
sI15
S'export'
p16
sI16
S'class'
p17
s.