(lp0
(lp1
I0
aa(lp2
I0
aI1
aI2
aa(lp3
I0
aI1
aI2
aa(lp4
I0
aI1
aI2
aI3
aa(lp5
I0
aI1
aI2
aa(lp6
I0
aI1
aI2
aI3
aI4
aI5
aI6
aI7
aI8
aI9
aI10
aa(lp7
I0
aI1
aI2
aI3
aI4
aI5
aI6
aI7
aI8
aa(lp8
I0
aI1
aI2
aI3
aI4
aI5
aI6
aI7
aI8
aI9
aa(lp9
I0
aI1
aI2
aI3
aI4
aI5
aI6
aI7
aI8
aI9
aI10
aI11
aI12
aI13
aI14
aI15
aI16
aI17
aa(lp10
I0
aI1
aI2
aI3
aI4
aI5
aI6
aI7
aI8
aI9
aI10
aI11
aI12
aa(lp11
I0
aI1
aI2
aa(lp12
I0
aI1
aI2
aI3
aI4
aI5
aI6
aI7
aI8
aI9
aI10
aI11
aI12
aa(lp13
I0
aI1
aI2
aI3
aI4
aI5
aI6
aI7
aI8
aI9
aI10
aI11
aI12
aI13
aI14
aI15
aI16
aa(lp14
I0
aI1
aI2
aI3
aI4
aI5
aI6
aI7
aI8
aI9
aI10
aa(lp15
I0
aI1
aI2
aI3
aI4
aI5
aI6
aI7
aI8
aa(lp16
I0
aI1
aI2
aI3
aI4
aI5
aI6
aI7
aI8
aa(lp17
I0
aI1
aI2
aa(lp18
I0
aI1
aI2
aa(lp19
I0
aI1
aI2
aa(lp20
I0
aI1
aa(lp21
I0
aa(lp22
S'0'
p23
aS'1'
p24
aS'2'
p25
aa.