(lp0
(lp1
I0
aI1
aa(lp2
I0
aI1
aI2
aa(lp3
I0
aI1
aa(lp4
I0
aI1
aa(lp5
I0
aI1
aa(lp6
I0
aI1
aI2
aa(lp7
I0
aI1
aI2
aI3
aa(lp8
I0
aI1
aa(lp9
I0
aI1
aa(lp10
I0
aI1
aI2
aa(lp11
I0
aI1
aI2
aI3
aa(lp12
I0
aI1
aI2
aa(lp13
I0
aI1
aI2
aI3
aa(lp14
S'1'
p15
aS'2'
p16
aS'3'
p17
aa.