(dp0
I0
S'att1'
p1
sI1
S'att2'
p2
sI2
S'att3'
p3
sI3
S'att4'
p4
sI4
S'att5'
p5
sI5
S'att6'
p6
sI6
S'att7'
p7
sI7
S'att8'
p8
sI8
S'att9'
p9
sI9
S'att10'
p10
sI10
S'att11'
p11
sI11
S'att12'
p12
sI12
S'att13'
p13
sI13
S'class'
p14
s.