(lp0
(lp1
S'0'
p2
aS'1'
p3
aa(lp4
g2
ag3
aa(lp5
g2
ag3
aa(lp6
g2
ag3
aa(lp7
g2
ag3
aa(lp8
g2
ag3
aa(lp9
g2
ag3
aa(lp10
g2
ag3
aa(lp11
g2
ag3
aa(lp12
g2
ag3
aa(lp13
g2
ag3
aa(lp14
g2
ag3
aa(lp15
g2
aS'2'
p16
aS'4'
p17
aS'5'
p18
aS'6'
p19
aS'8'
p20
aa(lp21
g2
ag3
aa(lp22
g2
ag3
aa(lp23
g2
ag3
aa(lp24
g3
ag16
aS'3'
p25
ag17
ag18
ag19
aS'7'
p26
aa.